target datalayout = "e-m:e-p270:32:32-p271:32:32-p272:64:64-i64:64-i128:128-f80:128-n8:16:32:64-S128"
target triple = "x86_64-pc-linux-gnu"

%struct.slurm_opt_t = type { ptr, ptr, ptr, ptr, ptr, ptr, ptr, ptr, i32, ptr, ptr, ptr, ptr, i32, i32, ptr, i32, i8, i8, i32, i8, i32, i32, ptr, i8, i32, i32, i64, i32, i32, i32, i32, i32, i32, ptr, i32, ptr, i8, i32, i32, ptr, i32, i32, i32, ptr, ptr, i32, i32, ptr, ptr, ptr, i32, i16, i16, i16, i8, i8, ptr, i8, i16, ptr, ptr, i32, i32, i32, ptr, ptr, ptr, ptr, ptr, ptr, i32, i64, i64, i64, i16, i64, ptr, ptr, ptr, ptr, ptr, ptr, ptr, i8, ptr, ptr, ptr, ptr, i8, i64, ptr, i16, ptr, i32, i32, ptr, ptr, i32, i32, i32, ptr, i32, i32, i32, i32, i32, ptr, i64, i32, i16, i32, ptr, ptr, ptr, ptr, ptr, i16, ptr, ptr, i16, i8, ptr, ptr, ptr, ptr }

@opt = external global %struct.slurm_opt_t, align 8
@error_exit = external global i32, align 4
@.str.13 = private unnamed_addr constant [3 x i8] c"%s\00", align 1
@_retry.retries = internal global i32 0, align 4
@_retry.msg = internal global ptr @.str.24, align 8
@.str.25 = private unnamed_addr constant [58 x i8] c"Syscall interrupted while allocating resources, retrying.\00", align 1
@.str.26 = private unnamed_addr constant [33 x i8] c"Unable to allocate resources: %s\00", align 1
@immediate_exit = external global i32, align 4
@_retry.external_msg_count = internal global i32 0, align 4
@.str.27 = private unnamed_addr constant [84 x i8] c"Srun communication socket apparently being written to by something other than Slurm\00", align 1
@.str.28 = private unnamed_addr constant [33 x i8] c"Unable to allocate resources: %m\00", align 1

; Function Attrs: nounwind uwtable
define internal zeroext i1 @_retry() #0 {
  %1 = alloca i1, align 1
  %2 = call ptr @__errno_location() #10
  %3 = load i32, ptr %2, align 4
  %4 = icmp eq i32 %3, 2007
  br i1 %4, label %9, label %5

5:                                                ; preds = %0
  %6 = call ptr @__errno_location() #10
  %7 = load i32, ptr %6, align 4
  %8 = icmp eq i32 %7, 11
  br i1 %8, label %9, label %34

9:                                                ; preds = %5, %0
  %10 = load i32, ptr @_retry.retries, align 4
  %11 = icmp eq i32 %10, 0
  br i1 %11, label %12, label %15

12:                                               ; preds = %9
  %13 = load ptr, ptr @_retry.msg, align 8
  %14 = call i32 (ptr, ...) @error(ptr noundef @.str.13, ptr noundef %13)
  br label %30

15:                                               ; preds = %9
  %16 = load i32, ptr @_retry.retries, align 4
  %17 = icmp slt i32 %16, 10
  br i1 %17, label %18, label %28

18:                                               ; preds = %15
  br label %19

19:                                               ; preds = %18
  br label %20

20:                                               ; preds = %19
  %21 = call i32 @get_log_level()
  %22 = icmp sge i32 %21, 5
  br i1 %22, label %23, label %25

23:                                               ; preds = %20
  %24 = load ptr, ptr @_retry.msg, align 8
  call void (i32, ptr, ...) @log_var(i32 noundef 5, ptr noundef @.str.13, ptr noundef %24)
  br label %25

25:                                               ; preds = %23, %20
  br label %26

26:                                               ; preds = %25
  br label %27

27:                                               ; preds = %26
  br label %29

28:                                               ; preds = %15
  store i1 false, ptr %1, align 1
  br label %89

29:                                               ; preds = %27
  br label %30

30:                                               ; preds = %29, %12
  %31 = load i32, ptr @_retry.retries, align 4
  %32 = add nsw i32 %31, 1
  store i32 %32, ptr @_retry.retries, align 4
  %33 = call i32 @sleep(i32 noundef %32)
  br label %88

34:                                               ; preds = %5
  %35 = call ptr @__errno_location() #10
  %36 = load i32, ptr %35, align 4
  %37 = icmp eq i32 %36, 4
  br i1 %37, label %38, label %47

38:                                               ; preds = %34
  br label %39

39:                                               ; preds = %38
  br label %40

40:                                               ; preds = %39
  %41 = call i32 @get_log_level()
  %42 = icmp sge i32 %41, 5
  br i1 %42, label %43, label %44

43:                                               ; preds = %40
  call void (i32, ptr, ...) @log_var(i32 noundef 5, ptr noundef @.str.25)
  br label %44

44:                                               ; preds = %43, %40
  br label %45

45:                                               ; preds = %44
  br label %46

46:                                               ; preds = %45
  store i1 true, ptr %1, align 1
  br label %89

47:                                               ; preds = %34
  %48 = load i32, ptr getelementptr inbounds nuw (%struct.slurm_opt_t, ptr @opt, i32 0, i32 51), align 8
  %49 = icmp ne i32 %48, 0
  br i1 %49, label %50, label %66

50:                                               ; preds = %47
  %51 = call ptr @__errno_location() #10
  %52 = load i32, ptr %51, align 4
  %53 = icmp eq i32 %52, 110
  br i1 %53, label %62, label %54

54:                                               ; preds = %50
  %55 = call ptr @__errno_location() #10
  %56 = load i32, ptr %55, align 4
  %57 = icmp eq i32 %56, 2016
  br i1 %57, label %62, label %58

58:                                               ; preds = %54
  %59 = call ptr @__errno_location() #10
  %60 = load i32, ptr %59, align 4
  %61 = icmp eq i32 %60, 2059
  br i1 %61, label %62, label %66

62:                                               ; preds = %58, %54, %50
  %63 = call ptr @slurm_strerror(i32 noundef 2016)
  %64 = call i32 (ptr, ...) @error(ptr noundef @.str.26, ptr noundef %63)
  %65 = load i32, ptr @immediate_exit, align 4
  store i32 %65, ptr @error_exit, align 4
  store i1 false, ptr %1, align 1
  br label %89

66:                                               ; preds = %58, %47
  %67 = call ptr @__errno_location() #10
  %68 = load i32, ptr %67, align 4
  %69 = icmp eq i32 %68, 1007
  br i1 %69, label %78, label %70

70:                                               ; preds = %66
  %71 = call ptr @__errno_location() #10
  %72 = load i32, ptr %71, align 4
  %73 = icmp eq i32 %72, 1000
  br i1 %73, label %78, label %74

74:                                               ; preds = %70
  %75 = call ptr @__errno_location() #10
  %76 = load i32, ptr %75, align 4
  %77 = icmp eq i32 %76, 1008
  br i1 %77, label %78, label %86

78:                                               ; preds = %74, %70, %66
  %79 = call i32 (ptr, ...) @error(ptr noundef @.str.27)
  %80 = load i32, ptr @_retry.external_msg_count, align 4
  %81 = add nsw i32 %80, 1
  store i32 %81, ptr @_retry.external_msg_count, align 4
  %82 = icmp slt i32 %80, 4
  br i1 %82, label %83, label %84

83:                                               ; preds = %78
  store i1 true, ptr %1, align 1
  br label %89

84:                                               ; preds = %78
  %85 = call i32 (ptr, ...) @error(ptr noundef @.str.28)
  store i1 false, ptr %1, align 1
  br label %89

86:                                               ; preds = %74
  %87 = call i32 (ptr, ...) @error(ptr noundef @.str.28)
  store i1 false, ptr %1, align 1
  br label %89

88:                                               ; preds = %30
  store i1 true, ptr %1, align 1
  br label %89

89:                                               ; preds = %88, %86, %84, %83, %62, %46, %28
  %90 = load i1, ptr %1, align 1
  ret i1 %90
}