; Function Attrs: nounwind uwtable
define internal fastcc noundef zeroext i1 @_retry() unnamed_addr #0 {
  %1 = tail call ptr @__errno_location() #11
  %2 = load i32, ptr %1, align 4
  switch i32 %2, label %22 [
    i32 2007, label %3
    i32 11, label %3
    i32 4, label %18
  ]

3:                                                ; preds = %0, %0
  %4 = load i32, ptr @_retry.retries, align 4
  %5 = icmp eq i32 %4, 0
  br i1 %5, label %6, label %8

6:                                                ; preds = %3
  %7 = tail call i32 (ptr, ...) @error(ptr noundef nonnull @.str.13, ptr noundef nonnull @.str.24) #9
  br label %14

8:                                                ; preds = %3
  %9 = icmp slt i32 %4, 10
  br i1 %9, label %10, label %39

10:                                               ; preds = %8
  %11 = tail call i32 @get_log_level() #9
  %12 = icmp sgt i32 %11, 4
  br i1 %12, label %13, label %14

13:                                               ; preds = %10
  tail call void (i32, ptr, ...) @log_var(i32 noundef 5, ptr noundef nonnull @.str.13, ptr noundef nonnull @.str.24) #9
  br label %14

14:                                               ; preds = %13, %10, %6
  %15 = load i32, ptr @_retry.retries, align 4
  %16 = add nsw i32 %15, 1
  store i32 %16, ptr @_retry.retries, align 4
  %17 = tail call i32 @sleep(i32 noundef %16) #9
  br label %39

18:                                               ; preds = %0
  %19 = tail call i32 @get_log_level() #9
  %20 = icmp sgt i32 %19, 4
  br i1 %20, label %21, label %39

21:                                               ; preds = %18
  tail call void (i32, ptr, ...) @log_var(i32 noundef 5, ptr noundef nonnull @.str.25) #9
  br label %39

22:                                               ; preds = %0
  %23 = load i32, ptr getelementptr inbounds nuw (i8, ptr @opt, i64 312), align 8
  %.not = icmp eq i32 %23, 0
  br i1 %.not, label %29, label %24

24:                                               ; preds = %22
  switch i32 %2, label %37 [
    i32 110, label %25
    i32 2016, label %25
    i32 2059, label %25
    i32 1007, label %30
    i32 1000, label %30
    i32 1008, label %30
  ]

25:                                               ; preds = %24, %24, %24
  %26 = tail call ptr @slurm_strerror(i32 noundef 2016) #9
  %27 = tail call i32 (ptr, ...) @error(ptr noundef nonnull @.str.26, ptr noundef %26) #9
  %28 = load i32, ptr @immediate_exit, align 4
  store i32 %28, ptr @error_exit, align 4
  br label %39

29:                                               ; preds = %22
  switch i32 %2, label %37 [
    i32 1007, label %30
    i32 1000, label %30
    i32 1008, label %30
  ]

30:                                               ; preds = %24, %24, %24, %29, %29, %29
  %31 = tail call i32 (ptr, ...) @error(ptr noundef nonnull @.str.27) #9
  %32 = load i32, ptr @_retry.external_msg_count, align 4
  %33 = add nsw i32 %32, 1
  store i32 %33, ptr @_retry.external_msg_count, align 4
  %34 = icmp slt i32 %32, 4
  br i1 %34, label %39, label %35

35:                                               ; preds = %30
  %36 = tail call i32 (ptr, ...) @error(ptr noundef nonnull @.str.28) #9
  br label %39

37:                                               ; preds = %24, %29
  %38 = tail call i32 (ptr, ...) @error(ptr noundef nonnull @.str.28) #9
  br label %39

39:                                               ; preds = %30, %18, %21, %8, %14, %37, %35, %25
  %.0 = phi i1 [ true, %14 ], [ false, %25 ], [ false, %35 ], [ false, %37 ], [ false, %8 ], [ true, %21 ], [ true, %18 ], [ true, %30 ]
  ret i1 %.0
}